SF:/Users/rim/code/rim/version-tracker/src/appconfig.rs
FN:16,_RNCNvMNtCs9zsbIJjcnkR_15version_tracker9appconfigNtB4_9AppConfig8from_env0B6_
FN:23,_RNCNvMNtCs9zsbIJjcnkR_15version_tracker9appconfigNtB4_9AppConfig8from_envs0_0B6_
FN:26,_RNCNvMNtCs9zsbIJjcnkR_15version_tracker9appconfigNtB4_9AppConfig8from_envs1_0B6_
FN:27,_RNCNvMNtCs9zsbIJjcnkR_15version_tracker9appconfigNtB4_9AppConfig8from_envs2_0B6_
FN:18,_RNCNvMNtCs9zsbIJjcnkR_15version_tracker9appconfigNtB4_9AppConfig8from_envs_0B6_
FN:56,_RNvMNtNtCs9zsbIJjcnkR_15version_tracker9appconfig5testsNtB2_8EnvGuard3new
FN:67,_RNvMNtNtCs9zsbIJjcnkR_15version_tracker9appconfig5testsNtB2_8EnvGuard3set
FN:13,_RNvMNtCs9zsbIJjcnkR_15version_tracker9appconfigNtB2_9AppConfig8from_env
FN:163,_RNvXs0_NtCs9zsbIJjcnkR_15version_tracker9appconfigNtB5_9AppConfigNtNtCs6sq8b9ugfBC_4core7default7Default7default
FN:38,_RNvXs_NtCs9zsbIJjcnkR_15version_tracker9appconfigNtB4_9AppConfigNtNtCs6sq8b9ugfBC_4core3fmt5Debug3fmt
FN:59,_RNCNvMNtNtCs9zsbIJjcnkR_15version_tracker9appconfig5testsNtB4_8EnvGuard3new0B8_
FN:114,_RNCNvNtNtCs9zsbIJjcnkR_15version_tracker9appconfig5testss_16custom_file_path0B7_
FN:106,_RNCNvNtNtCs9zsbIJjcnkR_15version_tracker9appconfig5testss_21custom_check_interval0B7_
FN:94,_RNCNvNtNtCs9zsbIJjcnkR_15version_tracker9appconfig5testss_25defaults_when_no_env_vars0B7_
FN:125,_RNCNvNtNtCs9zsbIJjcnkR_15version_tracker9appconfig5testss_28kubernetes_config_map_source0B7_
FN:152,_RNCNvNtNtCs9zsbIJjcnkR_15version_tracker9appconfig5testss_45unknown_image_source_falls_back_to_local_file0B7_
FN:140,_RNCNvNtNtCs9zsbIJjcnkR_15version_tracker9appconfig5testss_49kubernetes_config_map_defaults_namespace_and_name0B7_
FN:74,_RNvXs_NtNtCs9zsbIJjcnkR_15version_tracker9appconfig5testsNtB4_8EnvGuardNtNtNtCs6sq8b9ugfBC_4core3ops4drop4Drop4drop
FNDA:1,_RNCNvMNtCs9zsbIJjcnkR_15version_tracker9appconfigNtB4_9AppConfig8from_env0B6_
FNDA:2,_RNCNvMNtCs9zsbIJjcnkR_15version_tracker9appconfigNtB4_9AppConfig8from_envs0_0B6_
FNDA:1,_RNCNvMNtCs9zsbIJjcnkR_15version_tracker9appconfigNtB4_9AppConfig8from_envs1_0B6_
FNDA:1,_RNCNvMNtCs9zsbIJjcnkR_15version_tracker9appconfigNtB4_9AppConfig8from_envs2_0B6_
FNDA:3,_RNCNvMNtCs9zsbIJjcnkR_15version_tracker9appconfigNtB4_9AppConfig8from_envs_0B6_
FNDA:6,_RNvMNtNtCs9zsbIJjcnkR_15version_tracker9appconfig5testsNtB2_8EnvGuard3new
FNDA:7,_RNvMNtNtCs9zsbIJjcnkR_15version_tracker9appconfig5testsNtB2_8EnvGuard3set
FNDA:6,_RNvMNtCs9zsbIJjcnkR_15version_tracker9appconfigNtB2_9AppConfig8from_env
FNDA:0,_RNvXs0_NtCs9zsbIJjcnkR_15version_tracker9appconfigNtB5_9AppConfigNtNtCs6sq8b9ugfBC_4core7default7Default7default
FNDA:0,_RNvXs_NtCs9zsbIJjcnkR_15version_tracker9appconfigNtB4_9AppConfigNtNtCs6sq8b9ugfBC_4core3fmt5Debug3fmt
FNDA:30,_RNCNvMNtNtCs9zsbIJjcnkR_15version_tracker9appconfig5testsNtB4_8EnvGuard3new0B8_
FNDA:1,_RNCNvNtNtCs9zsbIJjcnkR_15version_tracker9appconfig5testss_16custom_file_path0B7_
FNDA:1,_RNCNvNtNtCs9zsbIJjcnkR_15version_tracker9appconfig5testss_21custom_check_interval0B7_
FNDA:1,_RNCNvNtNtCs9zsbIJjcnkR_15version_tracker9appconfig5testss_25defaults_when_no_env_vars0B7_
FNDA:1,_RNCNvNtNtCs9zsbIJjcnkR_15version_tracker9appconfig5testss_28kubernetes_config_map_source0B7_
FNDA:1,_RNCNvNtNtCs9zsbIJjcnkR_15version_tracker9appconfig5testss_45unknown_image_source_falls_back_to_local_file0B7_
FNDA:1,_RNCNvNtNtCs9zsbIJjcnkR_15version_tracker9appconfig5testss_49kubernetes_config_map_defaults_namespace_and_name0B7_
FNDA:6,_RNvXs_NtNtCs9zsbIJjcnkR_15version_tracker9appconfig5testsNtB4_8EnvGuardNtNtNtCs6sq8b9ugfBC_4core3ops4drop4Drop4drop
FNF:18
FNH:16
DA:13,6
DA:14,6
DA:15,6
DA:16,6
DA:17,6
DA:18,6
DA:20,6
DA:21,6
DA:22,6
DA:23,3
DA:25,3
DA:26,2
DA:27,2
DA:29,1
DA:30,1
DA:31,1
DA:34,6
DA:38,0
DA:39,0
DA:40,0
DA:41,0
DA:42,0
DA:43,0
DA:56,6
DA:57,6
DA:58,6
DA:59,30
DA:60,6
DA:61,30
DA:62,30
DA:63,30
DA:64,6
DA:65,6
DA:67,7
DA:68,7
DA:69,7
DA:70,7
DA:74,6
DA:75,30
DA:76,30
DA:77,0
DA:78,30
DA:81,6
DA:94,1
DA:95,1
DA:96,1
DA:97,1
DA:98,1
DA:99,1
DA:100,1
DA:106,1
DA:107,1
DA:108,1
DA:109,1
DA:114,1
DA:115,1
DA:116,1
DA:117,1
DA:118,1
DA:119,1
DA:125,1
DA:126,1
DA:127,1
DA:128,1
DA:129,1
DA:130,1
DA:131,1
DA:132,1
DA:133,1
DA:134,1
DA:140,1
DA:141,1
DA:142,1
DA:143,1
DA:144,1
DA:145,1
DA:146,1
DA:152,1
DA:153,1
DA:154,1
DA:155,1
DA:156,1
DA:157,1
DA:163,0
DA:164,0
DA:165,0
DA:166,0
DA:167,0
DA:168,0
DA:169,0
DA:170,0
BRF:0
BRH:0
LF:97
LH:82
end_of_record
SF:/Users/rim/code/rim/version-tracker/src/lib.rs
FN:305,_RNCNvNtCs9zsbIJjcnkR_15version_tracker5tests10write_temp0B5_
FN:400,_RNCNvNtCs9zsbIJjcnkR_15version_tracker5testss_30load_tracked_images_valid_yaml0B5_
FN:433,_RNCNvNtCs9zsbIJjcnkR_15version_tracker5testss_32load_tracked_images_invalid_yaml0B5_
FN:312,_RNCNvNtCs9zsbIJjcnkR_15version_tracker5testss_33apply_filesystem_tag_line_updated0B5_
FN:324,_RNCNvNtCs9zsbIJjcnkR_15version_tracker5testss_34apply_filesystem_full_line_updated0B5_
FN:422,_RNCNvNtCs9zsbIJjcnkR_15version_tracker5testss_34load_tracked_images_file_not_found0B5_
FN:385,_RNCNvNtCs9zsbIJjcnkR_15version_tracker5testss_41apply_filesystem_missing_file_returns_err0B5_
FN:361,_RNCNvNtCs9zsbIJjcnkR_15version_tracker5testss_43apply_filesystem_trailing_newline_preserved0B5_
FN:336,_RNCNvNtCs9zsbIJjcnkR_15version_tracker5testss_44apply_filesystem_only_matching_image_updated0B5_
FN:373,_RNCNvNtCs9zsbIJjcnkR_15version_tracker5testss_46apply_filesystem_no_trailing_newline_preserved0B5_
FN:349,_RNCNvNtCs9zsbIJjcnkR_15version_tracker5testss_48apply_filesystem_semver_guard_prevents_downgrade0B5_
FN:446,_RNvCs9zsbIJjcnkR_15version_tracker12fetch_latest
FN:475,_RNCNCNvCs9zsbIJjcnkR_15version_tracker12fetch_latest00B5_
FN:477,_RNCNCNvCs9zsbIJjcnkR_15version_tracker12fetch_latest0s0_0B5_
FN:478,_RNCNCNvCs9zsbIJjcnkR_15version_tracker12fetch_latest0s1_0B5_
FN:476,_RNCNCNvCs9zsbIJjcnkR_15version_tracker12fetch_latest0s_0B5_
FN:76,_RNCNCNvCs9zsbIJjcnkR_15version_tracker19load_tracked_images00B5_
FN:79,_RNCNCNvCs9zsbIJjcnkR_15version_tracker19load_tracked_images0s_0B5_
FN:97,_RNCNCNvCs9zsbIJjcnkR_15version_tracker23apply_filesystem_update00B5_
FN:448,_RNCNvCs9zsbIJjcnkR_15version_tracker12fetch_latest0B3_
FN:63,_RNCNvCs9zsbIJjcnkR_15version_tracker19load_tracked_images0B3_
FN:91,_RNCNvCs9zsbIJjcnkR_15version_tracker23apply_filesystem_update0B3_
FN:305,_RNvNtCs9zsbIJjcnkR_15version_tracker5tests10write_temp
FN:203,_RNvNtCs9zsbIJjcnkR_15version_tracker5tests13digest_result
FN:199,_RNvNtCs9zsbIJjcnkR_15version_tracker5tests13semver_result
FN:207,_RNvNtCs9zsbIJjcnkR_15version_tracker5tests13tracked_image
FN:218,_RNvNtCs9zsbIJjcnkR_15version_tracker5testss_26should_update_newer_semver
FN:400,_RNvNtCs9zsbIJjcnkR_15version_tracker5testss_30load_tracked_images_valid_yaml
FN:433,_RNvNtCs9zsbIJjcnkR_15version_tracker5testss_32load_tracked_images_invalid_yaml
FN:250,_RNvNtCs9zsbIJjcnkR_15version_tracker5testss_32rewrite_line_no_marker_unchanged
FN:312,_RNvNtCs9zsbIJjcnkR_15version_tracker5testss_33apply_filesystem_tag_line_updated
FN:324,_RNvNtCs9zsbIJjcnkR_15version_tracker5testss_34apply_filesystem_full_line_updated
FN:422,_RNvNtCs9zsbIJjcnkR_15version_tracker5testss_34load_tracked_images_file_not_found
FN:256,_RNvNtCs9zsbIJjcnkR_15version_tracker5testss_34rewrite_line_wrong_image_unchanged
FN:262,_RNvNtCs9zsbIJjcnkR_15version_tracker5testss_35rewrite_line_tag_mode_updates_value
FN:238,_RNvNtCs9zsbIJjcnkR_15version_tracker5testss_35should_update_digest_always_updates
FN:223,_RNvNtCs9zsbIJjcnkR_15version_tracker5testss_35should_update_same_semver_no_change
FN:228,_RNvNtCs9zsbIJjcnkR_15version_tracker5testss_36should_update_older_semver_no_change
FN:385,_RNvNtCs9zsbIJjcnkR_15version_tracker5testss_41apply_filesystem_missing_file_returns_err
FN:269,_RNvNtCs9zsbIJjcnkR_15version_tracker5testss_42rewrite_line_full_mode_updates_tag_portion
FN:361,_RNvNtCs9zsbIJjcnkR_15version_tracker5testss_43apply_filesystem_trailing_newline_preserved
FN:336,_RNvNtCs9zsbIJjcnkR_15version_tracker5testss_44apply_filesystem_only_matching_image_updated
FN:290,_RNvNtCs9zsbIJjcnkR_15version_tracker5testss_44rewrite_line_full_mode_digest_always_updates
FN:283,_RNvNtCs9zsbIJjcnkR_15version_tracker5testss_44rewrite_line_tag_mode_override_ignores_guard
FN:243,_RNvNtCs9zsbIJjcnkR_15version_tracker5testss_44should_update_override_bypasses_semver_guard
FN:373,_RNvNtCs9zsbIJjcnkR_15version_tracker5testss_46apply_filesystem_no_trailing_newline_preserved
FN:276,_RNvNtCs9zsbIJjcnkR_15version_tracker5testss_47rewrite_line_tag_mode_semver_guard_blocks_older
FN:349,_RNvNtCs9zsbIJjcnkR_15version_tracker5testss_48apply_filesystem_semver_guard_prevents_downgrade
FN:233,_RNvNtCs9zsbIJjcnkR_15version_tracker5testss_48should_update_unparseable_current_always_updates
FN:297,_RNvNtCs9zsbIJjcnkR_15version_tracker5testss_56rewrite_line_preserves_trailing_whitespace_before_marker
FN:112,_RNvCs9zsbIJjcnkR_15version_tracker12rewrite_line
FN:174,_RNvCs9zsbIJjcnkR_15version_tracker13should_update
FN:63,_RNvCs9zsbIJjcnkR_15version_tracker19load_tracked_images
FN:86,_RNvCs9zsbIJjcnkR_15version_tracker23apply_filesystem_update
FN:54,_RNvXCs9zsbIJjcnkR_15version_trackerNtB2_18TrackedImageResultNtNtCs8dnTdrJsiec_5alloc6string8ToString9to_string
FNDA:8,_RNCNvNtCs9zsbIJjcnkR_15version_tracker5tests10write_temp0B5_
FNDA:1,_RNCNvNtCs9zsbIJjcnkR_15version_tracker5testss_30load_tracked_images_valid_yaml0B5_
FNDA:1,_RNCNvNtCs9zsbIJjcnkR_15version_tracker5testss_32load_tracked_images_invalid_yaml0B5_
FNDA:1,_RNCNvNtCs9zsbIJjcnkR_15version_tracker5testss_33apply_filesystem_tag_line_updated0B5_
FNDA:1,_RNCNvNtCs9zsbIJjcnkR_15version_tracker5testss_34apply_filesystem_full_line_updated0B5_
FNDA:1,_RNCNvNtCs9zsbIJjcnkR_15version_tracker5testss_34load_tracked_images_file_not_found0B5_
FNDA:1,_RNCNvNtCs9zsbIJjcnkR_15version_tracker5testss_41apply_filesystem_missing_file_returns_err0B5_
FNDA:1,_RNCNvNtCs9zsbIJjcnkR_15version_tracker5testss_43apply_filesystem_trailing_newline_preserved0B5_
FNDA:1,_RNCNvNtCs9zsbIJjcnkR_15version_tracker5testss_44apply_filesystem_only_matching_image_updated0B5_
FNDA:1,_RNCNvNtCs9zsbIJjcnkR_15version_tracker5testss_46apply_filesystem_no_trailing_newline_preserved0B5_
FNDA:1,_RNCNvNtCs9zsbIJjcnkR_15version_tracker5testss_48apply_filesystem_semver_guard_prevents_downgrade0B5_
FNDA:0,_RNvCs9zsbIJjcnkR_15version_tracker12fetch_latest
FNDA:0,_RNCNCNvCs9zsbIJjcnkR_15version_tracker12fetch_latest00B5_
FNDA:0,_RNCNCNvCs9zsbIJjcnkR_15version_tracker12fetch_latest0s0_0B5_
FNDA:0,_RNCNCNvCs9zsbIJjcnkR_15version_tracker12fetch_latest0s1_0B5_
FNDA:0,_RNCNCNvCs9zsbIJjcnkR_15version_tracker12fetch_latest0s_0B5_
FNDA:0,_RNCNCNvCs9zsbIJjcnkR_15version_tracker19load_tracked_images00B5_
FNDA:0,_RNCNCNvCs9zsbIJjcnkR_15version_tracker19load_tracked_images0s_0B5_
FNDA:7,_RNCNCNvCs9zsbIJjcnkR_15version_tracker23apply_filesystem_update00B5_
FNDA:0,_RNCNvCs9zsbIJjcnkR_15version_tracker12fetch_latest0B3_
FNDA:3,_RNCNvCs9zsbIJjcnkR_15version_tracker19load_tracked_images0B3_
FNDA:7,_RNCNvCs9zsbIJjcnkR_15version_tracker23apply_filesystem_update0B3_
FNDA:8,_RNvNtCs9zsbIJjcnkR_15version_tracker5tests10write_temp
FNDA:2,_RNvNtCs9zsbIJjcnkR_15version_tracker5tests13digest_result
FNDA:19,_RNvNtCs9zsbIJjcnkR_15version_tracker5tests13semver_result
FNDA:7,_RNvNtCs9zsbIJjcnkR_15version_tracker5tests13tracked_image
FNDA:1,_RNvNtCs9zsbIJjcnkR_15version_tracker5testss_26should_update_newer_semver
FNDA:1,_RNvNtCs9zsbIJjcnkR_15version_tracker5testss_30load_tracked_images_valid_yaml
FNDA:1,_RNvNtCs9zsbIJjcnkR_15version_tracker5testss_32load_tracked_images_invalid_yaml
FNDA:1,_RNvNtCs9zsbIJjcnkR_15version_tracker5testss_32rewrite_line_no_marker_unchanged
FNDA:1,_RNvNtCs9zsbIJjcnkR_15version_tracker5testss_33apply_filesystem_tag_line_updated
FNDA:1,_RNvNtCs9zsbIJjcnkR_15version_tracker5testss_34apply_filesystem_full_line_updated
FNDA:1,_RNvNtCs9zsbIJjcnkR_15version_tracker5testss_34load_tracked_images_file_not_found
FNDA:1,_RNvNtCs9zsbIJjcnkR_15version_tracker5testss_34rewrite_line_wrong_image_unchanged
FNDA:1,_RNvNtCs9zsbIJjcnkR_15version_tracker5testss_35rewrite_line_tag_mode_updates_value
FNDA:1,_RNvNtCs9zsbIJjcnkR_15version_tracker5testss_35should_update_digest_always_updates
FNDA:1,_RNvNtCs9zsbIJjcnkR_15version_tracker5testss_35should_update_same_semver_no_change
FNDA:1,_RNvNtCs9zsbIJjcnkR_15version_tracker5testss_36should_update_older_semver_no_change
FNDA:1,_RNvNtCs9zsbIJjcnkR_15version_tracker5testss_41apply_filesystem_missing_file_returns_err
FNDA:1,_RNvNtCs9zsbIJjcnkR_15version_tracker5testss_42rewrite_line_full_mode_updates_tag_portion
FNDA:1,_RNvNtCs9zsbIJjcnkR_15version_tracker5testss_43apply_filesystem_trailing_newline_preserved
FNDA:1,_RNvNtCs9zsbIJjcnkR_15version_tracker5testss_44apply_filesystem_only_matching_image_updated
FNDA:1,_RNvNtCs9zsbIJjcnkR_15version_tracker5testss_44rewrite_line_full_mode_digest_always_updates
FNDA:1,_RNvNtCs9zsbIJjcnkR_15version_tracker5testss_44rewrite_line_tag_mode_override_ignores_guard
FNDA:1,_RNvNtCs9zsbIJjcnkR_15version_tracker5testss_44should_update_override_bypasses_semver_guard
FNDA:1,_RNvNtCs9zsbIJjcnkR_15version_tracker5testss_46apply_filesystem_no_trailing_newline_preserved
FNDA:1,_RNvNtCs9zsbIJjcnkR_15version_tracker5testss_47rewrite_line_tag_mode_semver_guard_blocks_older
FNDA:1,_RNvNtCs9zsbIJjcnkR_15version_tracker5testss_48apply_filesystem_semver_guard_prevents_downgrade
FNDA:1,_RNvNtCs9zsbIJjcnkR_15version_tracker5testss_48should_update_unparseable_current_always_updates
FNDA:1,_RNvNtCs9zsbIJjcnkR_15version_tracker5testss_56rewrite_line_preserves_trailing_whitespace_before_marker
FNDA:15,_RNvCs9zsbIJjcnkR_15version_tracker12rewrite_line
FNDA:18,_RNvCs9zsbIJjcnkR_15version_tracker13should_update
FNDA:3,_RNvCs9zsbIJjcnkR_15version_tracker19load_tracked_images
FNDA:7,_RNvCs9zsbIJjcnkR_15version_tracker23apply_filesystem_update
FNDA:6,_RNvXCs9zsbIJjcnkR_15version_trackerNtB2_18TrackedImageResultNtNtCs8dnTdrJsiec_5alloc6string8ToString9to_string
FNF:55
FNH:47
DA:54,6
DA:55,6
DA:56,6
DA:57,0
DA:59,6
DA:63,3
DA:64,3
DA:65,3
DA:66,3
DA:67,2
DA:68,1
DA:70,0
DA:71,0
DA:72,0
DA:73,0
DA:74,0
DA:75,0
DA:76,0
DA:77,0
DA:78,0
DA:79,0
DA:80,0
DA:81,0
DA:84,3
DA:86,7
DA:87,7
DA:88,7
DA:89,7
DA:90,7
DA:91,7
DA:92,7
DA:93,6
DA:95,6
DA:96,6
DA:97,7
DA:98,6
DA:99,6
DA:102,6
DA:103,5
DA:105,1
DA:108,6
DA:109,6
DA:110,7
DA:112,15
DA:113,15
DA:114,15
DA:115,15
DA:116,15
DA:117,15
DA:118,15
DA:119,15
DA:120,15
DA:122,15
DA:123,3
DA:124,12
DA:125,9
DA:127,3
DA:131,12
DA:132,12
DA:134,12
DA:135,12
DA:137,12
DA:140,3
DA:141,3
DA:142,3
DA:144,0
DA:147,3
DA:148,0
DA:149,3
DA:151,3
DA:152,3
DA:154,0
DA:157,3
DA:159,0
DA:163,9
DA:164,9
DA:165,2
DA:166,7
DA:167,7
DA:169,0
DA:172,15
DA:174,18
DA:175,18
DA:176,18
DA:177,18
DA:178,18
DA:179,18
DA:180,2
DA:181,16
DA:182,16
DA:183,14
DA:184,14
DA:185,13
DA:186,1
DA:189,2
DA:191,18
DA:199,19
DA:200,19
DA:201,19
DA:203,2
DA:204,2
DA:205,2
DA:207,7
DA:208,7
DA:209,7
DA:210,7
DA:211,7
DA:212,7
DA:213,7
DA:218,1
DA:219,1
DA:220,1
DA:223,1
DA:224,1
DA:225,1
DA:228,1
DA:229,1
DA:230,1
DA:233,1
DA:234,1
DA:235,1
DA:238,1
DA:239,1
DA:240,1
DA:243,1
DA:244,1
DA:245,1
DA:250,1
DA:251,1
DA:252,1
DA:253,1
DA:256,1
DA:257,1
DA:258,1
DA:259,1
DA:262,1
DA:263,1
DA:264,1
DA:265,1
DA:266,1
DA:269,1
DA:270,1
DA:271,1
DA:272,1
DA:273,1
DA:276,1
DA:277,1
DA:278,1
DA:279,1
DA:280,1
DA:283,1
DA:284,1
DA:285,1
DA:286,1
DA:287,1
DA:290,1
DA:291,1
DA:292,1
DA:293,1
DA:294,1
DA:297,1
DA:298,1
DA:299,1
DA:300,1
DA:301,1
DA:305,8
DA:306,8
DA:307,8
DA:308,8
DA:309,8
DA:312,1
DA:313,1
DA:314,1
DA:315,1
DA:316,1
DA:317,1
DA:318,1
DA:319,1
DA:320,1
DA:321,1
DA:324,1
DA:325,1
DA:326,1
DA:327,1
DA:328,1
DA:329,1
DA:330,1
DA:331,1
DA:332,1
DA:333,1
DA:336,1
DA:337,1
DA:338,1
DA:339,1
DA:340,1
DA:341,1
DA:342,1
DA:343,1
DA:344,1
DA:345,1
DA:346,1
DA:349,1
DA:350,1
DA:351,1
DA:352,1
DA:353,1
DA:354,1
DA:355,1
DA:356,1
DA:357,1
DA:358,1
DA:361,1
DA:362,1
DA:363,1
DA:364,1
DA:365,1
DA:366,1
DA:367,1
DA:368,1
DA:369,1
DA:370,1
DA:373,1
DA:374,1
DA:375,1
DA:376,1
DA:377,1
DA:378,1
DA:379,1
DA:380,1
DA:381,1
DA:382,1
DA:385,1
DA:386,1
DA:387,1
DA:388,1
DA:389,1
DA:390,1
DA:391,1
DA:392,1
DA:393,1
DA:394,1
DA:395,1
DA:400,1
DA:401,1
DA:402,1
DA:403,1
DA:404,1
DA:405,1
DA:406,1
DA:407,1
DA:408,1
DA:409,1
DA:410,1
DA:411,1
DA:412,1
DA:413,1
DA:414,1
DA:415,1
DA:416,1
DA:417,1
DA:418,1
DA:419,1
DA:422,1
DA:423,1
DA:424,1
DA:425,1
DA:426,1
DA:427,1
DA:428,1
DA:429,1
DA:430,1
DA:433,1
DA:434,1
DA:435,1
DA:436,1
DA:437,1
DA:438,1
DA:439,1
DA:440,1
DA:441,1
DA:442,1
DA:446,0
DA:447,0
DA:448,0
DA:449,0
DA:450,0
DA:451,0
DA:453,0
DA:455,0
DA:457,0
DA:458,0
DA:459,0
DA:460,0
DA:463,0
DA:465,0
DA:467,0
DA:469,0
DA:470,0
DA:471,0
DA:472,0
DA:473,0
DA:474,0
DA:475,0
DA:476,0
DA:477,0
DA:478,0
DA:479,0
DA:480,0
DA:482,0
DA:484,0
DA:485,0
DA:486,0
DA:487,0
DA:488,0
DA:493,0
BRF:0
BRH:0
LF:346
LH:287
end_of_record
SF:/Users/rim/code/rim/version-tracker/src/main.rs
FN:32,_RNCNCNCNvCscsaB5FtN7yf_15version_tracker15monitoring_loop000B7_
FN:31,_RNCNCNvCscsaB5FtN7yf_15version_tracker15monitoring_loop00B5_
FN:6,_RNCNvCscsaB5FtN7yf_15version_tracker15monitoring_loop0B3_
FN:68,_RNCNvCscsaB5FtN7yf_15version_tracker4main0B3_
FN:6,_RNvCscsaB5FtN7yf_15version_tracker15monitoring_loop
FN:68,_RNvCscsaB5FtN7yf_15version_tracker4main
FNDA:0,_RNCNCNCNvCscsaB5FtN7yf_15version_tracker15monitoring_loop000B7_
FNDA:0,_RNCNCNvCscsaB5FtN7yf_15version_tracker15monitoring_loop00B5_
FNDA:0,_RNCNvCscsaB5FtN7yf_15version_tracker15monitoring_loop0B3_
FNDA:0,_RNCNvCscsaB5FtN7yf_15version_tracker4main0B3_
FNDA:0,_RNvCscsaB5FtN7yf_15version_tracker15monitoring_loop
FNDA:0,_RNvCscsaB5FtN7yf_15version_tracker4main
FNF:6
FNH:0
DA:6,0
DA:7,0
DA:12,0
DA:13,0
DA:14,0
DA:15,0
DA:16,0
DA:17,0
DA:18,0
DA:22,0
DA:23,0
DA:27,0
DA:28,0
DA:29,0
DA:31,0
DA:32,0
DA:33,0
DA:34,0
DA:35,0
DA:38,0
DA:40,0
DA:41,0
DA:42,0
DA:43,0
DA:44,0
DA:46,0
DA:49,0
DA:53,0
DA:54,0
DA:56,0
DA:57,0
DA:59,0
DA:63,0
DA:68,0
DA:70,0
DA:71,0
DA:72,0
DA:73,0
DA:75,0
DA:76,0
DA:77,0
DA:78,0
DA:79,0
DA:80,0
DA:81,0
DA:82,0
BRF:0
BRH:0
LF:51
LH:0
end_of_record